target datalayout = "e-m:e-p270:32:32-p271:32:32-p272:64:64-i64:64-i128:128-f80:128-n8:16:32:64-S128"
target triple = "x86_64-pc-linux-gnu"

%struct._nodeIterator = type { i32, i32, ptr }

; Function Attrs: nounwind uwtable
define hidden ptr @php_dom_libxml_hash_iter(ptr noundef %0, i32 noundef %1) #0 {
  %3 = alloca ptr, align 8
  %4 = alloca ptr, align 8
  %5 = alloca i32, align 4
  %6 = alloca ptr, align 8
  %7 = alloca ptr, align 8
  %8 = alloca i32, align 4
  store ptr %0, ptr %4, align 8
  store i32 %1, ptr %5, align 4
  store ptr null, ptr %6, align 8
  %9 = load ptr, ptr %4, align 8
  %10 = call i32 @xmlHashSize(ptr noundef %9)
  store i32 %10, ptr %8, align 4
  %11 = icmp sgt i32 %10, 0
  br i1 %11, label %12, label %32

12:                                               ; preds = %2
  %13 = load i32, ptr %5, align 4
  %14 = load i32, ptr %8, align 4
  %15 = icmp slt i32 %13, %14
  br i1 %15, label %16, label %32

16:                                               ; preds = %12
  %17 = call noalias ptr @_emalloc_16()
  store ptr %17, ptr %7, align 8
  %18 = load ptr, ptr %7, align 8
  %19 = getelementptr inbounds %struct._nodeIterator, ptr %18, i32 0, i32 0
  store i32 0, ptr %19, align 8
  %20 = load i32, ptr %5, align 4
  %21 = load ptr, ptr %7, align 8
  %22 = getelementptr inbounds %struct._nodeIterator, ptr %21, i32 0, i32 1
  store i32 %20, ptr %22, align 4
  %23 = load ptr, ptr %7, align 8
  %24 = getelementptr inbounds %struct._nodeIterator, ptr %23, i32 0, i32 2
  store ptr null, ptr %24, align 8
  %25 = load ptr, ptr %4, align 8
  %26 = load ptr, ptr %7, align 8
  call void @xmlHashScan(ptr noundef %25, ptr noundef @itemHashScanner, ptr noundef %26)
  %27 = load ptr, ptr %7, align 8
  %28 = getelementptr inbounds %struct._nodeIterator, ptr %27, i32 0, i32 2
  %29 = load ptr, ptr %28, align 8
  store ptr %29, ptr %6, align 8
  %30 = load ptr, ptr %7, align 8
  call void @_efree(ptr noundef %30)
  %31 = load ptr, ptr %6, align 8
  store ptr %31, ptr %3, align 8
  br label %33

32:                                               ; preds = %12, %2
  store ptr null, ptr %3, align 8
  br label %33

33:                                               ; preds = %32, %16
  %34 = load ptr, ptr %3, align 8
  ret ptr %34
}