; Function Attrs: nounwind uwtable
define hidden ptr @php_dom_libxml_hash_iter(ptr noundef %0, i32 noundef %1) local_unnamed_addr #0 {
  %3 = tail call i32 @xmlHashSize(ptr noundef %0) #8
  %4 = icmp sgt i32 %3, 0
  %5 = icmp sgt i32 %3, %1
  %or.cond = and i1 %4, %5
  br i1 %or.cond, label %6, label %11

6:                                                ; preds = %2
  %7 = tail call noalias ptr @_emalloc_16() #8
  store i32 0, ptr %7, align 8
  %8 = getelementptr inbounds i8, ptr %7, i64 4
  store i32 %1, ptr %8, align 4
  %9 = getelementptr inbounds i8, ptr %7, i64 8
  store ptr null, ptr %9, align 8
  tail call void @xmlHashScan(ptr noundef %0, ptr noundef nonnull @itemHashScanner, ptr noundef nonnull %7) #8
  %10 = load ptr, ptr %9, align 8
  tail call void @_efree(ptr noundef nonnull %7) #8
  br label %11

11:                                               ; preds = %2, %6
  %.0 = phi ptr [ %10, %6 ], [ null, %2 ]
  ret ptr %.0
}